target datalayout = "e-m:e-p270:32:32-p271:32:32-p272:64:64-i64:64-i128:128-f80:128-n8:16:32:64-S128"
target triple = "x86_64-pc-linux-gnu"

%struct.IpoptProblemInfo = type { %"class.Ipopt::SmartPtr", %"class.Ipopt::SmartPtr.0", i32, ptr, ptr, i32, ptr, ptr, i32, i32, i32, ptr, ptr, ptr, ptr, ptr, ptr, double, ptr, ptr }
%"class.Ipopt::SmartPtr" = type { ptr }
%"class.Ipopt::SmartPtr.0" = type { ptr }
%"class.Ipopt::ReferencedObject.base" = type <{ ptr, i32 }>
%"class.Ipopt::StdInterfaceTNLP" = type { %"class.Ipopt::TNLP.base", %"class.Ipopt::SmartPtr.16", i32, i32, ptr, ptr, ptr, ptr, i32, i32, i32, ptr, ptr, ptr, ptr, ptr, ptr, ptr, ptr, ptr, ptr, ptr, double, ptr, ptr, ptr, ptr, ptr, ptr, ptr, ptr, ptr, ptr, ptr }
%"class.Ipopt::TNLP.base" = type { %"class.Ipopt::ReferencedObject.base" }
%"class.Ipopt::SmartPtr.16" = type { ptr }

; Function Attrs: mustprogress uwtable
define linkonce_odr noundef zeroext i1 @_ZNK5Ipopt16StdInterfaceTNLP19get_curr_violationsEbiPdS1_S1_S1_S1_iS1_S1_(ptr noundef nonnull align 8 dereferenceable(264) %0, i1 noundef zeroext %1, i32 noundef %2, ptr noundef %3, ptr noundef %4, ptr noundef %5, ptr noundef %6, ptr noundef %7, i32 noundef %8, ptr noundef %9, ptr noundef %10) #4 comdat align 2 {
  %12 = alloca ptr, align 8
  %13 = alloca i8, align 1
  %14 = alloca i32, align 4
  %15 = alloca ptr, align 8
  %16 = alloca ptr, align 8
  %17 = alloca ptr, align 8
  %18 = alloca ptr, align 8
  %19 = alloca ptr, align 8
  %20 = alloca i32, align 4
  %21 = alloca ptr, align 8
  %22 = alloca ptr, align 8
  store ptr %0, ptr %12, align 8, !tbaa !39
  %23 = zext i1 %1 to i8
  store i8 %23, ptr %13, align 1, !tbaa !44
  store i32 %2, ptr %14, align 4, !tbaa !3
  store ptr %3, ptr %15, align 8, !tbaa !7
  store ptr %4, ptr %16, align 8, !tbaa !7
  store ptr %5, ptr %17, align 8, !tbaa !7
  store ptr %6, ptr %18, align 8, !tbaa !7
  store ptr %7, ptr %19, align 8, !tbaa !7
  store i32 %8, ptr %20, align 4, !tbaa !3
  store ptr %9, ptr %21, align 8, !tbaa !7
  store ptr %10, ptr %22, align 8, !tbaa !7
  %24 = load ptr, ptr %12, align 8
  %25 = getelementptr inbounds nuw %"class.Ipopt::StdInterfaceTNLP", ptr %24, i32 0, i32 32
  %26 = load ptr, ptr %25, align 8, !tbaa !104
  %27 = getelementptr inbounds nuw %"class.Ipopt::StdInterfaceTNLP", ptr %24, i32 0, i32 33
  %28 = load ptr, ptr %27, align 8, !tbaa !108
  %29 = load i8, ptr %13, align 1, !tbaa !44, !range !67, !noundef !68
  %30 = trunc i8 %29 to i1
  %31 = load i32, ptr %14, align 4, !tbaa !3
  %32 = load ptr, ptr %15, align 8, !tbaa !7
  %33 = load ptr, ptr %16, align 8, !tbaa !7
  %34 = load ptr, ptr %17, align 8, !tbaa !7
  %35 = load ptr, ptr %18, align 8, !tbaa !7
  %36 = load ptr, ptr %19, align 8, !tbaa !7
  %37 = load i32, ptr %20, align 4, !tbaa !3
  %38 = load ptr, ptr %21, align 8, !tbaa !7
  %39 = load ptr, ptr %22, align 8, !tbaa !7
  %40 = call noundef zeroext i1 @_ZNK5Ipopt4TNLP19get_curr_violationsEPKNS_9IpoptDataEPNS_25IpoptCalculatedQuantitiesEbiPdS6_S6_S6_S6_iS6_S6_(ptr noundef nonnull align 8 dereferenceable(12) %24, ptr noundef %26, ptr noundef %28, i1 noundef zeroext %30, i32 noundef %31, ptr noundef %32, ptr noundef %33, ptr noundef %34, ptr noundef %35, ptr noundef %36, i32 noundef %37, ptr noundef %38, ptr noundef %39)
  ret i1 %40
}

; Function Attrs: mustprogress nounwind uwtable
define linkonce_odr noundef ptr @_ZNK5Ipopt8SmartPtrINS_16StdInterfaceTNLPEEptEv(ptr noundef nonnull align 8 dereferenceable(8) %0) #10 comdat align 2 {
  %2 = alloca ptr, align 8
  store ptr %0, ptr %2, align 8, !tbaa !37
  %3 = load ptr, ptr %2, align 8
  %4 = getelementptr inbounds nuw %"class.Ipopt::SmartPtr.0", ptr %3, i32 0, i32 0
  %5 = load ptr, ptr %4, align 8, !tbaa !103
  ret ptr %5
}

; Function Attrs: mustprogress nounwind uwtable
define linkonce_odr noundef zeroext i1 @_ZN5Ipopt6IsNullINS_16StdInterfaceTNLPEEEbRKNS_8SmartPtrIT_EE(ptr noundef nonnull align 8 dereferenceable(8) %0) #10 comdat {
  %2 = alloca ptr, align 8
  store ptr %0, ptr %2, align 8, !tbaa !37
  %3 = load ptr, ptr %2, align 8, !tbaa !37
  %4 = getelementptr inbounds nuw %"class.Ipopt::SmartPtr.0", ptr %3, i32 0, i32 0
  %5 = load ptr, ptr %4, align 8, !tbaa !103
  %6 = icmp eq ptr %5, null
  ret i1 %6
}

; Function Attrs: mustprogress uwtable
define zeroext i1 @GetIpoptCurrentViolations(ptr noundef %0, i1 noundef zeroext %1, i32 noundef %2, ptr noundef %3, ptr noundef %4, ptr noundef %5, ptr noundef %6, ptr noundef %7, i32 noundef %8, ptr noundef %9, ptr noundef %10) #4 {
  %12 = alloca i1, align 1
  %13 = alloca ptr, align 8
  %14 = alloca i8, align 1
  %15 = alloca i32, align 4
  %16 = alloca ptr, align 8
  %17 = alloca ptr, align 8
  %18 = alloca ptr, align 8
  %19 = alloca ptr, align 8
  %20 = alloca ptr, align 8
  %21 = alloca i32, align 4
  %22 = alloca ptr, align 8
  %23 = alloca ptr, align 8
  store ptr %0, ptr %13, align 8, !tbaa !11
  %24 = zext i1 %1 to i8
  store i8 %24, ptr %14, align 1, !tbaa !44
  store i32 %2, ptr %15, align 4, !tbaa !3
  store ptr %3, ptr %16, align 8, !tbaa !7
  store ptr %4, ptr %17, align 8, !tbaa !7
  store ptr %5, ptr %18, align 8, !tbaa !7
  store ptr %6, ptr %19, align 8, !tbaa !7
  store ptr %7, ptr %20, align 8, !tbaa !7
  store i32 %8, ptr %21, align 4, !tbaa !3
  store ptr %9, ptr %22, align 8, !tbaa !7
  store ptr %10, ptr %23, align 8, !tbaa !7
  %25 = load ptr, ptr %13, align 8, !tbaa !11
  %26 = getelementptr inbounds nuw %struct.IpoptProblemInfo, ptr %25, i32 0, i32 1
  %27 = call noundef zeroext i1 @_ZN5Ipopt6IsNullINS_16StdInterfaceTNLPEEEbRKNS_8SmartPtrIT_EE(ptr noundef nonnull align 8 dereferenceable(8) %26)
  br i1 %27, label %28, label %29

28:                                               ; preds = %11
  store i1 false, ptr %12, align 1
  br label %47

29:                                               ; preds = %11
  %30 = load ptr, ptr %13, align 8, !tbaa !11
  %31 = getelementptr inbounds nuw %struct.IpoptProblemInfo, ptr %30, i32 0, i32 1
  %32 = call noundef ptr @_ZNK5Ipopt8SmartPtrINS_16StdInterfaceTNLPEEptEv(ptr noundef nonnull align 8 dereferenceable(8) %31)
  %33 = load i8, ptr %14, align 1, !tbaa !44, !range !67, !noundef !68
  %34 = trunc i8 %33 to i1
  %35 = zext i1 %34 to i32
  %36 = icmp ne i32 %35, 0
  %37 = load i32, ptr %15, align 4, !tbaa !3
  %38 = load ptr, ptr %16, align 8, !tbaa !7
  %39 = load ptr, ptr %17, align 8, !tbaa !7
  %40 = load ptr, ptr %18, align 8, !tbaa !7
  %41 = load ptr, ptr %19, align 8, !tbaa !7
  %42 = load ptr, ptr %20, align 8, !tbaa !7
  %43 = load i32, ptr %21, align 4, !tbaa !3
  %44 = load ptr, ptr %22, align 8, !tbaa !7
  %45 = load ptr, ptr %23, align 8, !tbaa !7
  %46 = call noundef zeroext i1 @_ZNK5Ipopt16StdInterfaceTNLP19get_curr_violationsEbiPdS1_S1_S1_S1_iS1_S1_(ptr noundef nonnull align 8 dereferenceable(264) %32, i1 noundef zeroext %36, i32 noundef %37, ptr noundef %38, ptr noundef %39, ptr noundef %40, ptr noundef %41, ptr noundef %42, i32 noundef %43, ptr noundef %44, ptr noundef %45)
  store i1 %46, ptr %12, align 1
  br label %47

47:                                               ; preds = %29, %28
  %48 = load i1, ptr %12, align 1
  ret i1 %48
}