; Function Attrs: mustprogress uwtable
define noundef zeroext i1 @GetIpoptCurrentViolations(ptr noundef readonly captures(none) %0, i1 noundef zeroext %1, i32 noundef %2, ptr noundef %3, ptr noundef %4, ptr noundef %5, ptr noundef %6, ptr noundef %7, i32 noundef %8, ptr noundef %9, ptr noundef %10) local_unnamed_addr #3 {
  %12 = getelementptr inbounds nuw i8, ptr %0, i64 8
  %13 = load ptr, ptr %12, align 8, !tbaa !58
  %14 = icmp eq ptr %13, null
  br i1 %14, label %21, label %15

15:                                               ; preds = %11
  %16 = getelementptr inbounds nuw i8, ptr %13, i64 248
  %17 = load ptr, ptr %16, align 8, !tbaa !75
  %18 = getelementptr inbounds nuw i8, ptr %13, i64 256
  %19 = load ptr, ptr %18, align 8, !tbaa !79
  %20 = tail call noundef zeroext i1 @_ZNK5Ipopt4TNLP19get_curr_violationsEPKNS_9IpoptDataEPNS_25IpoptCalculatedQuantitiesEbiPdS6_S6_S6_S6_iS6_S6_(ptr noundef nonnull align 8 dereferenceable(264) %13, ptr noundef %17, ptr noundef %19, i1 noundef zeroext %1, i32 noundef %2, ptr noundef %3, ptr noundef %4, ptr noundef %5, ptr noundef %6, ptr noundef %7, i32 noundef %8, ptr noundef %9, ptr noundef %10)
  br label %21

21:                                               ; preds = %11, %15
  %.0 = phi i1 [ %20, %15 ], [ false, %11 ]
  ret i1 %.0
}